target datalayout = "e-m:e-p270:32:32-p271:32:32-p272:64:64-i64:64-i128:128-f80:128-n8:16:32:64-S128"
target triple = "x86_64-pc-linux-gnu"

%struct.AVCodecContext = type { ptr, i32, i32, ptr, i32, i32, ptr, ptr, ptr, i64, i32, i32, ptr, i32, %struct.AVRational, %struct.AVRational, %struct.AVRational, i32, i32, i32, i32, i32, %struct.AVRational, i32, i32, i32, i32, i32, i32, i32, i32, i32, i32, i32, ptr, ptr, i32, float, float, float, float, float, float, float, float, float, i32, i32, i32, i32, i32, i32, i32, i32, i32, i32, i32, i32, ptr, ptr, ptr, i32, i32, i32, i32, i32, i32, i32, i32, i32, i32, %struct.AVChannelLayout, i32, i32, i32, i32, i32, i32, i32, i32, ptr, i32, i32, i32, float, float, i32, i32, i32, i32, i32, ptr, i64, i64, float, float, i32, i32, ptr, ptr, i32, i32, i32, i32, i32, ptr, ptr, ptr, ptr, i32, i32, [8 x i64], i32, i32, i32, i32, i32, i32, i32, ptr, ptr, i32, i32, i32, i32, i32, i32, i32, i32, i32, i32, ptr, ptr, i32, i32, ptr, ptr, ptr, ptr, i32, i32, i64, i32, i32, i64, ptr, i64, ptr, i32, ptr, i32 }
%struct.AVRational = type { i32, i32 }
%struct.AVChannelLayout = type { i32, i32, %union.anon.0, ptr }
%union.anon.0 = type { i64 }
%struct.LclDecContext = type { i32, i32, i32, i32, ptr, %struct.FFZStream }
%struct.FFZStream = type { %struct.z_stream_s, i32 }
%struct.z_stream_s = type { ptr, i32, i64, ptr, i32, i64, ptr, ptr, ptr, ptr, ptr, i32, i64, i64 }

@.str.36 = private unnamed_addr constant [25 x i8] c"Inflate reset error: %d\0A\00", align 1
@.str.37 = private unnamed_addr constant [19 x i8] c"Inflate error: %d\0A\00", align 1
@.str.38 = private unnamed_addr constant [34 x i8] c"Decoded size differs (%d != %lu)\0A\00", align 1

; Function Attrs: nounwind uwtable
define internal i32 @zlib_decomp(ptr noundef %0, ptr noundef %1, i32 noundef %2, i32 noundef %3, i32 noundef %4) #1 {
  %6 = alloca i32, align 4
  %7 = alloca ptr, align 8
  %8 = alloca ptr, align 8
  %9 = alloca i32, align 4
  %10 = alloca i32, align 4
  %11 = alloca i32, align 4
  %12 = alloca ptr, align 8
  %13 = alloca ptr, align 8
  %14 = alloca i32, align 4
  %15 = alloca i32, align 4
  store ptr %0, ptr %7, align 8, !tbaa !4
  store ptr %1, ptr %8, align 8, !tbaa !55
  store i32 %2, ptr %9, align 4, !tbaa !33
  store i32 %3, ptr %10, align 4, !tbaa !33
  store i32 %4, ptr %11, align 4, !tbaa !33
  call void @llvm.lifetime.start.p0(i64 8, ptr %12) #7
  %16 = load ptr, ptr %7, align 8, !tbaa !4
  %17 = getelementptr inbounds nuw %struct.AVCodecContext, ptr %16, i32 0, i32 6
  %18 = load ptr, ptr %17, align 8, !tbaa !9
  store ptr %18, ptr %12, align 8, !tbaa !29
  call void @llvm.lifetime.start.p0(i64 8, ptr %13) #7
  %19 = load ptr, ptr %12, align 8, !tbaa !29
  %20 = getelementptr inbounds nuw %struct.LclDecContext, ptr %19, i32 0, i32 5
  %21 = getelementptr inbounds nuw %struct.FFZStream, ptr %20, i32 0, i32 0
  store ptr %21, ptr %13, align 8, !tbaa !82
  call void @llvm.lifetime.start.p0(i64 4, ptr %14) #7
  %22 = load ptr, ptr %13, align 8, !tbaa !82
  %23 = call i32 @inflateReset(ptr noundef %22)
  store i32 %23, ptr %14, align 4, !tbaa !33
  %24 = load i32, ptr %14, align 4, !tbaa !33
  %25 = icmp ne i32 %24, 0
  br i1 %25, label %26, label %29

26:                                               ; preds = %5
  %27 = load ptr, ptr %7, align 8, !tbaa !4
  %28 = load i32, ptr %14, align 4, !tbaa !33
  call void (ptr, i32, ptr, ...) @av_log(ptr noundef %27, i32 noundef 16, ptr noundef @.str.36, i32 noundef %28)
  store i32 -1313558101, ptr %6, align 4
  store i32 1, ptr %15, align 4
  br label %91

29:                                               ; preds = %5
  %30 = load ptr, ptr %8, align 8, !tbaa !55
  %31 = load ptr, ptr %13, align 8, !tbaa !82
  %32 = getelementptr inbounds nuw %struct.z_stream_s, ptr %31, i32 0, i32 0
  store ptr %30, ptr %32, align 8, !tbaa !84
  %33 = load i32, ptr %9, align 4, !tbaa !33
  %34 = load ptr, ptr %13, align 8, !tbaa !82
  %35 = getelementptr inbounds nuw %struct.z_stream_s, ptr %34, i32 0, i32 1
  store i32 %33, ptr %35, align 8, !tbaa !85
  %36 = load ptr, ptr %12, align 8, !tbaa !29
  %37 = getelementptr inbounds nuw %struct.LclDecContext, ptr %36, i32 0, i32 4
  %38 = load ptr, ptr %37, align 8, !tbaa !46
  %39 = load i32, ptr %10, align 4, !tbaa !33
  %40 = sext i32 %39 to i64
  %41 = getelementptr inbounds i8, ptr %38, i64 %40
  %42 = load ptr, ptr %13, align 8, !tbaa !82
  %43 = getelementptr inbounds nuw %struct.z_stream_s, ptr %42, i32 0, i32 3
  store ptr %41, ptr %43, align 8, !tbaa !86
  %44 = load ptr, ptr %12, align 8, !tbaa !29
  %45 = getelementptr inbounds nuw %struct.LclDecContext, ptr %44, i32 0, i32 3
  %46 = load i32, ptr %45, align 4, !tbaa !43
  %47 = load i32, ptr %10, align 4, !tbaa !33
  %48 = sub i32 %46, %47
  %49 = load ptr, ptr %13, align 8, !tbaa !82
  %50 = getelementptr inbounds nuw %struct.z_stream_s, ptr %49, i32 0, i32 4
  store i32 %48, ptr %50, align 8, !tbaa !87
  %51 = load ptr, ptr %13, align 8, !tbaa !82
  %52 = call i32 @inflate(ptr noundef %51, i32 noundef 4)
  store i32 %52, ptr %14, align 4, !tbaa !33
  %53 = load i32, ptr %14, align 4, !tbaa !33
  %54 = icmp ne i32 %53, 0
  br i1 %54, label %55, label %61

55:                                               ; preds = %29
  %56 = load i32, ptr %14, align 4, !tbaa !33
  %57 = icmp ne i32 %56, 1
  br i1 %57, label %58, label %61

58:                                               ; preds = %55
  %59 = load ptr, ptr %7, align 8, !tbaa !4
  %60 = load i32, ptr %14, align 4, !tbaa !33
  call void (ptr, i32, ptr, ...) @av_log(ptr noundef %59, i32 noundef 16, ptr noundef @.str.37, i32 noundef %60)
  store i32 -1313558101, ptr %6, align 4
  store i32 1, ptr %15, align 4
  br label %91

61:                                               ; preds = %55, %29
  %62 = load i32, ptr %11, align 4, !tbaa !33
  %63 = load ptr, ptr %13, align 8, !tbaa !82
  %64 = getelementptr inbounds nuw %struct.z_stream_s, ptr %63, i32 0, i32 5
  %65 = load i64, ptr %64, align 8, !tbaa !88
  %66 = trunc i64 %65 to i32
  %67 = icmp ne i32 %62, %66
  br i1 %67, label %68, label %86

68:                                               ; preds = %61
  %69 = load ptr, ptr %7, align 8, !tbaa !4
  %70 = load i32, ptr %11, align 4, !tbaa !33
  %71 = load ptr, ptr %13, align 8, !tbaa !82
  %72 = getelementptr inbounds nuw %struct.z_stream_s, ptr %71, i32 0, i32 5
  %73 = load i64, ptr %72, align 8, !tbaa !88
  call void (ptr, i32, ptr, ...) @av_log(ptr noundef %69, i32 noundef 16, ptr noundef @.str.38, i32 noundef %70, i64 noundef %73)
  %74 = load i32, ptr %11, align 4, !tbaa !33
  %75 = load ptr, ptr %13, align 8, !tbaa !82
  %76 = getelementptr inbounds nuw %struct.z_stream_s, ptr %75, i32 0, i32 5
  %77 = load i64, ptr %76, align 8, !tbaa !88
  %78 = trunc i64 %77 to i32
  %79 = icmp ugt i32 %74, %78
  br i1 %79, label %80, label %85

80:                                               ; preds = %68
  %81 = load ptr, ptr %13, align 8, !tbaa !82
  %82 = getelementptr inbounds nuw %struct.z_stream_s, ptr %81, i32 0, i32 5
  %83 = load i64, ptr %82, align 8, !tbaa !88
  %84 = trunc i64 %83 to i32
  store i32 %84, ptr %6, align 4
  store i32 1, ptr %15, align 4
  br label %91

85:                                               ; preds = %68
  store i32 -1313558101, ptr %6, align 4
  store i32 1, ptr %15, align 4
  br label %91

86:                                               ; preds = %61
  %87 = load ptr, ptr %13, align 8, !tbaa !82
  %88 = getelementptr inbounds nuw %struct.z_stream_s, ptr %87, i32 0, i32 5
  %89 = load i64, ptr %88, align 8, !tbaa !88
  %90 = trunc i64 %89 to i32
  store i32 %90, ptr %6, align 4
  store i32 1, ptr %15, align 4
  br label %91

91:                                               ; preds = %86, %85, %80, %58, %26
  call void @llvm.lifetime.end.p0(i64 4, ptr %14) #7
  call void @llvm.lifetime.end.p0(i64 8, ptr %13) #7
  call void @llvm.lifetime.end.p0(i64 8, ptr %12) #7
  %92 = load i32, ptr %6, align 4
  ret i32 %92
}