; Function Attrs: nounwind uwtable
define internal fastcc i32 @zlib_decomp(ptr noundef %0, ptr noundef %1, i32 noundef %2, i32 noundef %3, i32 noundef %4) unnamed_addr #1 {
  %6 = getelementptr inbounds nuw i8, ptr %0, i64 32
  %7 = load ptr, ptr %6, align 8, !tbaa !4
  %8 = getelementptr inbounds nuw i8, ptr %7, i64 24
  %9 = tail call i32 @inflateReset(ptr noundef nonnull %8) #7
  %.not = icmp eq i32 %9, 0
  br i1 %.not, label %11, label %10

10:                                               ; preds = %5
  tail call void (ptr, i32, ptr, ...) @av_log(ptr noundef nonnull %0, i32 noundef 16, ptr noundef nonnull @.str.36, i32 noundef %9) #7
  br label %32

11:                                               ; preds = %5
  store ptr %1, ptr %8, align 8, !tbaa !72
  %12 = getelementptr inbounds nuw i8, ptr %7, i64 32
  store i32 %2, ptr %12, align 8, !tbaa !73
  %13 = getelementptr inbounds nuw i8, ptr %7, i64 16
  %14 = load ptr, ptr %13, align 8, !tbaa !42
  %15 = sext i32 %3 to i64
  %16 = getelementptr inbounds i8, ptr %14, i64 %15
  %17 = getelementptr inbounds nuw i8, ptr %7, i64 48
  store ptr %16, ptr %17, align 8, !tbaa !74
  %18 = getelementptr inbounds nuw i8, ptr %7, i64 12
  %19 = load i32, ptr %18, align 4, !tbaa !38
  %20 = sub i32 %19, %3
  %21 = getelementptr inbounds nuw i8, ptr %7, i64 56
  store i32 %20, ptr %21, align 8, !tbaa !75
  %22 = tail call i32 @inflate(ptr noundef nonnull %8, i32 noundef 4) #7
  %or.cond = icmp ugt i32 %22, 1
  br i1 %or.cond, label %23, label %24

23:                                               ; preds = %11
  tail call void (ptr, i32, ptr, ...) @av_log(ptr noundef nonnull %0, i32 noundef 16, ptr noundef nonnull @.str.37, i32 noundef %22) #7
  br label %32

24:                                               ; preds = %11
  %25 = getelementptr inbounds nuw i8, ptr %7, i64 64
  %26 = load i64, ptr %25, align 8, !tbaa !76
  %27 = trunc i64 %26 to i32
  %.not36 = icmp eq i32 %4, %27
  br i1 %.not36, label %32, label %28

28:                                               ; preds = %24
  tail call void (ptr, i32, ptr, ...) @av_log(ptr noundef nonnull %0, i32 noundef 16, ptr noundef nonnull @.str.38, i32 noundef %4, i64 noundef %26) #7
  %29 = load i64, ptr %25, align 8, !tbaa !76
  %30 = trunc i64 %29 to i32
  %31 = icmp ugt i32 %4, %30
  %. = select i1 %31, i32 %30, i32 -1313558101
  br label %32

32:                                               ; preds = %24, %28, %23, %10
  %.0 = phi i32 [ -1313558101, %10 ], [ -1313558101, %23 ], [ %., %28 ], [ %4, %24 ]
  ret i32 %.0
}